target datalayout = "e-m:e-p270:32:32-p271:32:32-p272:64:64-i64:64-i128:128-f80:128-n8:16:32:64-S128"
target triple = "x86_64-pc-linux-gnu"

%struct.VMAFMotionData = type { [5 x i16], i32, i32, i64, [2 x ptr], ptr, double, i64, %struct.VMAFMotionDSPContext }
%struct.VMAFMotionDSPContext = type { ptr, ptr, ptr }
%struct.AVPixFmtDescriptor = type { ptr, i8, i8, i8, i64, [4 x %struct.AVComponentDescriptor], ptr }
%struct.AVComponentDescriptor = type { i32, i32, i32, i32, i32 }

@FILTER_5 = internal constant [5 x float] [float 0x3FABE5F0E0000000, float 0x3FCF41FD60000000, float 0x3FD9C48680000000, float 0x3FCF41FD60000000, float 0x3FABE5F0E0000000], align 16

; Function Attrs: nounwind uwtable
define internal void @vmafmotiondsp_init(ptr noundef %0, i32 noundef %1) #0 {
  %3 = alloca ptr, align 8
  %4 = alloca i32, align 4
  store ptr %0, ptr %3, align 8, !tbaa !42
  store i32 %1, ptr %4, align 4, !tbaa !23
  %5 = load ptr, ptr %3, align 8, !tbaa !42
  %6 = getelementptr inbounds nuw %struct.VMAFMotionDSPContext, ptr %5, i32 0, i32 1
  store ptr @convolution_x, ptr %6, align 8, !tbaa !44
  %7 = load i32, ptr %4, align 4, !tbaa !23
  %8 = icmp eq i32 %7, 10
  %9 = select i1 %8, ptr @convolution_y_10bit, ptr @convolution_y_8bit
  %10 = load ptr, ptr %3, align 8, !tbaa !42
  %11 = getelementptr inbounds nuw %struct.VMAFMotionDSPContext, ptr %10, i32 0, i32 2
  store ptr %9, ptr %11, align 8, !tbaa !45
  %12 = load ptr, ptr %3, align 8, !tbaa !42
  %13 = getelementptr inbounds nuw %struct.VMAFMotionDSPContext, ptr %12, i32 0, i32 0
  store ptr @image_sad, ptr %13, align 8, !tbaa !46
  ret void
}

; Function Attrs: nounwind uwtable
define i32 @ff_vmafmotion_init(ptr noundef %0, i32 noundef %1, i32 noundef %2, i32 noundef %3) #0 {
  %5 = alloca i32, align 4
  %6 = alloca ptr, align 8
  %7 = alloca i32, align 4
  %8 = alloca i32, align 4
  %9 = alloca i32, align 4
  %10 = alloca i64, align 8
  %11 = alloca i32, align 4
  %12 = alloca ptr, align 8
  %13 = alloca i32, align 4
  store ptr %0, ptr %6, align 8, !tbaa !4
  store i32 %1, ptr %7, align 4, !tbaa !23
  store i32 %2, ptr %8, align 4, !tbaa !23
  store i32 %3, ptr %9, align 4, !tbaa !23
  call void @llvm.lifetime.start.p0(i64 8, ptr %10) #10
  call void @llvm.lifetime.start.p0(i64 4, ptr %11) #10
  call void @llvm.lifetime.start.p0(i64 8, ptr %12) #10
  %14 = load i32, ptr %9, align 4, !tbaa !23
  %15 = call ptr @av_pix_fmt_desc_get(i32 noundef %14)
  store ptr %15, ptr %12, align 8, !tbaa !32
  %16 = load i32, ptr %7, align 4, !tbaa !23
  %17 = icmp slt i32 %16, 3
  br i1 %17, label %21, label %18

18:                                               ; preds = %4
  %19 = load i32, ptr %8, align 4, !tbaa !23
  %20 = icmp slt i32 %19, 3
  br i1 %20, label %21, label %22

21:                                               ; preds = %18, %4
  store i32 -22, ptr %5, align 4
  store i32 1, ptr %13, align 4
  br label %92

22:                                               ; preds = %18
  %23 = load i32, ptr %7, align 4, !tbaa !23
  %24 = load ptr, ptr %6, align 8, !tbaa !4
  %25 = getelementptr inbounds nuw %struct.VMAFMotionData, ptr %24, i32 0, i32 1
  store i32 %23, ptr %25, align 4, !tbaa !21
  %26 = load i32, ptr %8, align 4, !tbaa !23
  %27 = load ptr, ptr %6, align 8, !tbaa !4
  %28 = getelementptr inbounds nuw %struct.VMAFMotionData, ptr %27, i32 0, i32 2
  store i32 %26, ptr %28, align 8, !tbaa !22
  %29 = load i32, ptr %7, align 4, !tbaa !23
  %30 = sext i32 %29 to i64
  %31 = mul i64 %30, 2
  %32 = add i64 %31, 32
  %33 = sub i64 %32, 1
  %34 = and i64 %33, -32
  %35 = load ptr, ptr %6, align 8, !tbaa !4
  %36 = getelementptr inbounds nuw %struct.VMAFMotionData, ptr %35, i32 0, i32 3
  store i64 %34, ptr %36, align 8, !tbaa !24
  %37 = load ptr, ptr %6, align 8, !tbaa !4
  %38 = getelementptr inbounds nuw %struct.VMAFMotionData, ptr %37, i32 0, i32 3
  %39 = load i64, ptr %38, align 8, !tbaa !24
  %40 = load i32, ptr %8, align 4, !tbaa !23
  %41 = sext i32 %40 to i64
  %42 = mul i64 %39, %41
  store i64 %42, ptr %10, align 8, !tbaa !30
  %43 = load i64, ptr %10, align 8, !tbaa !30
  %44 = call noalias ptr @av_malloc(i64 noundef %43)
  %45 = load ptr, ptr %6, align 8, !tbaa !4
  %46 = getelementptr inbounds nuw %struct.VMAFMotionData, ptr %45, i32 0, i32 4
  %47 = getelementptr inbounds [2 x ptr], ptr %46, i64 0, i64 0
  store ptr %44, ptr %47, align 8, !tbaa !26
  %48 = icmp ne ptr %44, null
  br i1 %48, label %49, label %62

49:                                               ; preds = %22
  %50 = load i64, ptr %10, align 8, !tbaa !30
  %51 = call noalias ptr @av_malloc(i64 noundef %50)
  %52 = load ptr, ptr %6, align 8, !tbaa !4
  %53 = getelementptr inbounds nuw %struct.VMAFMotionData, ptr %52, i32 0, i32 4
  %54 = getelementptr inbounds [2 x ptr], ptr %53, i64 0, i64 1
  store ptr %51, ptr %54, align 8, !tbaa !26
  %55 = icmp ne ptr %51, null
  br i1 %55, label %56, label %62

56:                                               ; preds = %49
  %57 = load i64, ptr %10, align 8, !tbaa !30
  %58 = call noalias ptr @av_malloc(i64 noundef %57)
  %59 = load ptr, ptr %6, align 8, !tbaa !4
  %60 = getelementptr inbounds nuw %struct.VMAFMotionData, ptr %59, i32 0, i32 5
  store ptr %58, ptr %60, align 8, !tbaa !20
  %61 = icmp ne ptr %58, null
  br i1 %61, label %63, label %62

62:                                               ; preds = %56, %49, %22
  store i32 -12, ptr %5, align 4
  store i32 1, ptr %13, align 4
  br label %92

63:                                               ; preds = %56
  store i32 0, ptr %11, align 4, !tbaa !23
  br label %64

64:                                               ; preds = %81, %63
  %65 = load i32, ptr %11, align 4, !tbaa !23
  %66 = icmp slt i32 %65, 5
  br i1 %66, label %67, label %84

67:                                               ; preds = %64
  %68 = load i32, ptr %11, align 4, !tbaa !23
  %69 = sext i32 %68 to i64
  %70 = getelementptr inbounds [5 x float], ptr @FILTER_5, i64 0, i64 %69
  %71 = load float, ptr %70, align 4, !tbaa !34
  %72 = fmul nsz float %71, 3.276800e+04
  %73 = fpext nsz float %72 to double
  %74 = call i64 @llvm.lrint.i64.f64(double %73)
  %75 = trunc i64 %74 to i16
  %76 = load ptr, ptr %6, align 8, !tbaa !4
  %77 = getelementptr inbounds nuw %struct.VMAFMotionData, ptr %76, i32 0, i32 0
  %78 = load i32, ptr %11, align 4, !tbaa !23
  %79 = sext i32 %78 to i64
  %80 = getelementptr inbounds [5 x i16], ptr %77, i64 0, i64 %79
  store i16 %75, ptr %80, align 2, !tbaa !36
  br label %81

81:                                               ; preds = %67
  %82 = load i32, ptr %11, align 4, !tbaa !23
  %83 = add nsw i32 %82, 1
  store i32 %83, ptr %11, align 4, !tbaa !23
  br label %64, !llvm.loop !38

84:                                               ; preds = %64
  %85 = load ptr, ptr %6, align 8, !tbaa !4
  %86 = getelementptr inbounds nuw %struct.VMAFMotionData, ptr %85, i32 0, i32 8
  %87 = load ptr, ptr %12, align 8, !tbaa !32
  %88 = getelementptr inbounds nuw %struct.AVPixFmtDescriptor, ptr %87, i32 0, i32 5
  %89 = getelementptr inbounds [4 x %struct.AVComponentDescriptor], ptr %88, i64 0, i64 0
  %90 = getelementptr inbounds nuw %struct.AVComponentDescriptor, ptr %89, i32 0, i32 4
  %91 = load i32, ptr %90, align 8, !tbaa !40
  call void @vmafmotiondsp_init(ptr noundef %86, i32 noundef %91)
  store i32 0, ptr %5, align 4
  store i32 1, ptr %13, align 4
  br label %92

92:                                               ; preds = %84, %62, %21
  call void @llvm.lifetime.end.p0(i64 8, ptr %12) #10
  call void @llvm.lifetime.end.p0(i64 4, ptr %11) #10
  call void @llvm.lifetime.end.p0(i64 8, ptr %10) #10
  %93 = load i32, ptr %5, align 4
  ret i32 %93
}