; Function Attrs: nounwind uwtable
define range(i32 -22, 1) i32 @ff_vmafmotion_init(ptr noundef writeonly captures(none) %0, i32 noundef %1, i32 noundef %2, i32 noundef %3) local_unnamed_addr #0 {
  %5 = tail call ptr @av_pix_fmt_desc_get(i32 noundef %3) #10
  %6 = icmp slt i32 %1, 3
  %7 = icmp slt i32 %2, 3
  %or.cond = or i1 %6, %7
  br i1 %or.cond, label %41, label %8

8:                                                ; preds = %4
  %9 = getelementptr inbounds nuw i8, ptr %0, i64 12
  store i32 %1, ptr %9, align 4, !tbaa !17
  %10 = getelementptr inbounds nuw i8, ptr %0, i64 16
  store i32 %2, ptr %10, align 8, !tbaa !18
  %11 = shl nuw i32 %1, 1
  %12 = zext i32 %11 to i64
  %13 = add nuw nsw i64 %12, 31
  %14 = and i64 %13, 8589934560
  %15 = getelementptr inbounds nuw i8, ptr %0, i64 24
  store i64 %14, ptr %15, align 8, !tbaa !20
  %16 = zext nneg i32 %2 to i64
  %17 = mul nuw i64 %14, %16
  %18 = tail call noalias ptr @av_malloc(i64 noundef %17) #10
  %19 = getelementptr inbounds nuw i8, ptr %0, i64 32
  store ptr %18, ptr %19, align 8, !tbaa !22
  %.not = icmp eq ptr %18, null
  br i1 %.not, label %41, label %20

20:                                               ; preds = %8
  %21 = tail call noalias ptr @av_malloc(i64 noundef %17) #10
  %22 = getelementptr inbounds nuw i8, ptr %0, i64 40
  store ptr %21, ptr %22, align 8, !tbaa !22
  %.not28 = icmp eq ptr %21, null
  br i1 %.not28, label %41, label %23

23:                                               ; preds = %20
  %24 = tail call noalias ptr @av_malloc(i64 noundef %17) #10
  %25 = getelementptr inbounds nuw i8, ptr %0, i64 48
  store ptr %24, ptr %25, align 8, !tbaa !16
  %.not29 = icmp eq ptr %24, null
  br i1 %.not29, label %41, label %.preheader

.preheader:                                       ; preds = %23, %.preheader
  %indvars.iv = phi i64 [ %indvars.iv.next, %.preheader ], [ 0, %23 ]
  %26 = getelementptr inbounds nuw [5 x float], ptr @FILTER_5, i64 0, i64 %indvars.iv
  %27 = load float, ptr %26, align 4, !tbaa !26
  %28 = fmul nsz float %27, 3.276800e+04
  %29 = fpext nsz float %28 to double
  %30 = tail call i64 @llvm.lrint.i64.f64(double %29)
  %31 = trunc i64 %30 to i16
  %32 = getelementptr inbounds nuw [5 x i16], ptr %0, i64 0, i64 %indvars.iv
  store i16 %31, ptr %32, align 2, !tbaa !28
  %indvars.iv.next = add nuw nsw i64 %indvars.iv, 1
  %exitcond.not = icmp eq i64 %indvars.iv.next, 5
  br i1 %exitcond.not, label %33, label %.preheader, !llvm.loop !30

33:                                               ; preds = %.preheader
  %34 = getelementptr inbounds nuw i8, ptr %0, i64 72
  %35 = getelementptr inbounds nuw i8, ptr %5, i64 40
  %36 = load i32, ptr %35, align 8, !tbaa !32
  %37 = getelementptr inbounds nuw i8, ptr %0, i64 80
  store ptr @convolution_x, ptr %37, align 8, !tbaa !34
  %38 = icmp eq i32 %36, 10
  %39 = select i1 %38, ptr @convolution_y_10bit, ptr @convolution_y_8bit
  %40 = getelementptr inbounds nuw i8, ptr %0, i64 88
  store ptr %39, ptr %40, align 8, !tbaa !35
  store ptr @image_sad, ptr %34, align 8, !tbaa !36
  br label %41

41:                                               ; preds = %8, %20, %23, %4, %33
  %.0 = phi i32 [ 0, %33 ], [ -22, %4 ], [ -12, %23 ], [ -12, %20 ], [ -12, %8 ]
  ret i32 %.0
}